target datalayout = "e-m:e-p270:32:32-p271:32:32-p272:64:64-i64:64-i128:128-f80:128-n8:16:32:64-S128"
target triple = "x86_64-pc-linux-gnu"

%struct.mbedtls_asn1_bitstring = type { i64, i8, ptr }

; Function Attrs: mustprogress nounwind uwtable
define hidden i32 @mbedtls_asn1_get_tag(ptr noundef %0, ptr noundef %1, ptr noundef %2, i32 noundef %3) #0 {
  %5 = alloca i32, align 4
  %6 = alloca ptr, align 8
  %7 = alloca ptr, align 8
  %8 = alloca ptr, align 8
  %9 = alloca i32, align 4
  store ptr %0, ptr %6, align 8, !tbaa !3
  store ptr %1, ptr %7, align 8, !tbaa !8
  store ptr %2, ptr %8, align 8, !tbaa !10
  store i32 %3, ptr %9, align 4, !tbaa !15
  %10 = load ptr, ptr %7, align 8, !tbaa !8
  %11 = load ptr, ptr %6, align 8, !tbaa !3
  %12 = load ptr, ptr %11, align 8, !tbaa !8
  %13 = ptrtoint ptr %10 to i64
  %14 = ptrtoint ptr %12 to i64
  %15 = sub i64 %13, %14
  %16 = icmp slt i64 %15, 1
  br i1 %16, label %17, label %18

17:                                               ; preds = %4
  store i32 -96, ptr %5, align 4
  br label %34

18:                                               ; preds = %4
  %19 = load ptr, ptr %6, align 8, !tbaa !3
  %20 = load ptr, ptr %19, align 8, !tbaa !8
  %21 = load i8, ptr %20, align 1, !tbaa !12
  %22 = zext i8 %21 to i32
  %23 = load i32, ptr %9, align 4, !tbaa !15
  %24 = icmp ne i32 %22, %23
  br i1 %24, label %25, label %26

25:                                               ; preds = %18
  store i32 -98, ptr %5, align 4
  br label %34

26:                                               ; preds = %18
  %27 = load ptr, ptr %6, align 8, !tbaa !3
  %28 = load ptr, ptr %27, align 8, !tbaa !8
  %29 = getelementptr inbounds nuw i8, ptr %28, i32 1
  store ptr %29, ptr %27, align 8, !tbaa !8
  %30 = load ptr, ptr %6, align 8, !tbaa !3
  %31 = load ptr, ptr %7, align 8, !tbaa !8
  %32 = load ptr, ptr %8, align 8, !tbaa !10
  %33 = call i32 @mbedtls_asn1_get_len(ptr noundef %30, ptr noundef %31, ptr noundef %32)
  store i32 %33, ptr %5, align 4
  br label %34

34:                                               ; preds = %26, %25, %17
  %35 = load i32, ptr %5, align 4
  ret i32 %35
}

; Function Attrs: mustprogress nounwind uwtable
define hidden i32 @mbedtls_asn1_get_bitstring(ptr noundef %0, ptr noundef %1, ptr noundef %2) #0 {
  %4 = alloca i32, align 4
  %5 = alloca ptr, align 8
  %6 = alloca ptr, align 8
  %7 = alloca ptr, align 8
  %8 = alloca i32, align 4
  %9 = alloca i32, align 4
  store ptr %0, ptr %5, align 8, !tbaa !3
  store ptr %1, ptr %6, align 8, !tbaa !8
  store ptr %2, ptr %7, align 8, !tbaa !24
  call void @llvm.lifetime.start.p0(i64 4, ptr %8) #8
  store i32 -110, ptr %8, align 4, !tbaa !15
  %10 = load ptr, ptr %5, align 8, !tbaa !3
  %11 = load ptr, ptr %6, align 8, !tbaa !8
  %12 = load ptr, ptr %7, align 8, !tbaa !24
  %13 = getelementptr inbounds nuw %struct.mbedtls_asn1_bitstring, ptr %12, i32 0, i32 0
  %14 = call i32 @mbedtls_asn1_get_tag(ptr noundef %10, ptr noundef %11, ptr noundef %13, i32 noundef 3)
  store i32 %14, ptr %8, align 4, !tbaa !15
  %15 = icmp ne i32 %14, 0
  br i1 %15, label %16, label %18

16:                                               ; preds = %3
  %17 = load i32, ptr %8, align 4, !tbaa !15
  store i32 %17, ptr %4, align 4
  store i32 1, ptr %9, align 4
  br label %60

18:                                               ; preds = %3
  %19 = load ptr, ptr %7, align 8, !tbaa !24
  %20 = getelementptr inbounds nuw %struct.mbedtls_asn1_bitstring, ptr %19, i32 0, i32 0
  %21 = load i64, ptr %20, align 8, !tbaa !26
  %22 = icmp ult i64 %21, 1
  br i1 %22, label %23, label %24

23:                                               ; preds = %18
  store i32 -96, ptr %4, align 4
  store i32 1, ptr %9, align 4
  br label %60

24:                                               ; preds = %18
  %25 = load ptr, ptr %7, align 8, !tbaa !24
  %26 = getelementptr inbounds nuw %struct.mbedtls_asn1_bitstring, ptr %25, i32 0, i32 0
  %27 = load i64, ptr %26, align 8, !tbaa !26
  %28 = sub i64 %27, 1
  store i64 %28, ptr %26, align 8, !tbaa !26
  %29 = load ptr, ptr %5, align 8, !tbaa !3
  %30 = load ptr, ptr %29, align 8, !tbaa !8
  %31 = load i8, ptr %30, align 1, !tbaa !12
  %32 = load ptr, ptr %7, align 8, !tbaa !24
  %33 = getelementptr inbounds nuw %struct.mbedtls_asn1_bitstring, ptr %32, i32 0, i32 1
  store i8 %31, ptr %33, align 8, !tbaa !28
  %34 = load ptr, ptr %7, align 8, !tbaa !24
  %35 = getelementptr inbounds nuw %struct.mbedtls_asn1_bitstring, ptr %34, i32 0, i32 1
  %36 = load i8, ptr %35, align 8, !tbaa !28
  %37 = zext i8 %36 to i32
  %38 = icmp sgt i32 %37, 7
  br i1 %38, label %39, label %40

39:                                               ; preds = %24
  store i32 -100, ptr %4, align 4
  store i32 1, ptr %9, align 4
  br label %60

40:                                               ; preds = %24
  %41 = load ptr, ptr %5, align 8, !tbaa !3
  %42 = load ptr, ptr %41, align 8, !tbaa !8
  %43 = getelementptr inbounds nuw i8, ptr %42, i32 1
  store ptr %43, ptr %41, align 8, !tbaa !8
  %44 = load ptr, ptr %5, align 8, !tbaa !3
  %45 = load ptr, ptr %44, align 8, !tbaa !8
  %46 = load ptr, ptr %7, align 8, !tbaa !24
  %47 = getelementptr inbounds nuw %struct.mbedtls_asn1_bitstring, ptr %46, i32 0, i32 2
  store ptr %45, ptr %47, align 8, !tbaa !29
  %48 = load ptr, ptr %7, align 8, !tbaa !24
  %49 = getelementptr inbounds nuw %struct.mbedtls_asn1_bitstring, ptr %48, i32 0, i32 0
  %50 = load i64, ptr %49, align 8, !tbaa !26
  %51 = load ptr, ptr %5, align 8, !tbaa !3
  %52 = load ptr, ptr %51, align 8, !tbaa !8
  %53 = getelementptr inbounds nuw i8, ptr %52, i64 %50
  store ptr %53, ptr %51, align 8, !tbaa !8
  %54 = load ptr, ptr %5, align 8, !tbaa !3
  %55 = load ptr, ptr %54, align 8, !tbaa !8
  %56 = load ptr, ptr %6, align 8, !tbaa !8
  %57 = icmp ne ptr %55, %56
  br i1 %57, label %58, label %59

58:                                               ; preds = %40
  store i32 -102, ptr %4, align 4
  store i32 1, ptr %9, align 4
  br label %60

59:                                               ; preds = %40
  store i32 0, ptr %4, align 4
  store i32 1, ptr %9, align 4
  br label %60

60:                                               ; preds = %59, %58, %39, %23, %16
  call void @llvm.lifetime.end.p0(i64 4, ptr %8) #8
  %61 = load i32, ptr %4, align 4
  ret i32 %61
}