; Function Attrs: mustprogress nofree norecurse nosync nounwind willreturn memory(read, argmem: readwrite, inaccessiblemem: none) uwtable
define hidden range(i32 -102, 1) i32 @mbedtls_asn1_get_bitstring(ptr noundef captures(none) %0, ptr noundef %1, ptr noundef captures(none) %2) local_unnamed_addr #0 {
  %4 = load ptr, ptr %0, align 8, !tbaa !3
  %5 = ptrtoint ptr %1 to i64
  %6 = ptrtoint ptr %4 to i64
  %7 = sub i64 %5, %6
  %8 = icmp slt i64 %7, 1
  br i1 %8, label %mbedtls_asn1_get_tag.exit.thread, label %9

9:                                                ; preds = %3
  %10 = load i8, ptr %4, align 1, !tbaa !8
  %.not.i = icmp eq i8 %10, 3
  br i1 %.not.i, label %mbedtls_asn1_get_tag.exit, label %mbedtls_asn1_get_tag.exit.thread

mbedtls_asn1_get_tag.exit:                        ; preds = %9
  %11 = getelementptr inbounds nuw i8, ptr %4, i64 1
  store ptr %11, ptr %0, align 8, !tbaa !3
  %12 = tail call i32 @mbedtls_asn1_get_len(ptr noundef nonnull %0, ptr noundef %1, ptr noundef %2)
  %.not = icmp eq i32 %12, 0
  br i1 %.not, label %13, label %mbedtls_asn1_get_tag.exit.thread

13:                                               ; preds = %mbedtls_asn1_get_tag.exit
  %14 = load i64, ptr %2, align 8, !tbaa !16
  %15 = icmp eq i64 %14, 0
  br i1 %15, label %mbedtls_asn1_get_tag.exit.thread, label %16

16:                                               ; preds = %13
  %17 = add i64 %14, -1
  store i64 %17, ptr %2, align 8, !tbaa !16
  %18 = load ptr, ptr %0, align 8, !tbaa !3
  %19 = load i8, ptr %18, align 1, !tbaa !8
  %20 = getelementptr inbounds nuw i8, ptr %2, i64 8
  store i8 %19, ptr %20, align 8, !tbaa !18
  %21 = icmp ugt i8 %19, 7
  br i1 %21, label %mbedtls_asn1_get_tag.exit.thread, label %22

22:                                               ; preds = %16
  %23 = getelementptr inbounds nuw i8, ptr %18, i64 1
  store ptr %23, ptr %0, align 8, !tbaa !3
  %24 = getelementptr inbounds nuw i8, ptr %2, i64 16
  store ptr %23, ptr %24, align 8, !tbaa !19
  %25 = load ptr, ptr %0, align 8, !tbaa !3
  %26 = getelementptr inbounds nuw i8, ptr %25, i64 %17
  store ptr %26, ptr %0, align 8, !tbaa !3
  %.not18 = icmp eq ptr %26, %1
  %. = select i1 %.not18, i32 0, i32 -102
  br label %mbedtls_asn1_get_tag.exit.thread

mbedtls_asn1_get_tag.exit.thread:                 ; preds = %9, %3, %22, %16, %13, %mbedtls_asn1_get_tag.exit
  %.0 = phi i32 [ %12, %mbedtls_asn1_get_tag.exit ], [ -96, %13 ], [ -100, %16 ], [ %., %22 ], [ -98, %9 ], [ -96, %3 ]
  ret i32 %.0
}